target datalayout = "e-m:e-p270:32:32-p271:32:32-p272:64:64-i64:64-i128:128-f80:128-n8:16:32:64-S128"
target triple = "x86_64-pc-linux-gnu"

%struct.RangeVar = type { i32, ptr, ptr, ptr, i8, i8, ptr, i32 }
%struct.nameData = type { [64 x i8] }
%struct.FormData_pg_class = type { i32, %struct.nameData, i32, i32, i32, i32, i32, i32, i32, i32, float, i32, i32, i8, i8, i8, i8, i16, i16, i8, i8, i8, i8, i8, i8, i8, i8, i32, i32, i32 }
%struct.HeapTupleData = type { i32, %struct.ItemPointerData, i32, ptr }
%struct.ItemPointerData = type { %struct.BlockIdData, i16 }
%struct.BlockIdData = type { i16, i16 }
%struct.HeapTupleHeaderData = type { %union.anon, %struct.ItemPointerData, i16, i16, i8, [0 x i8] }
%union.anon = type { %struct.HeapTupleFields }
%struct.HeapTupleFields = type { i32, i32, %union.anon.0 }
%union.anon.0 = type { i32 }
%struct.AttachIndexCallbackState = type { i32, i32, i8 }

@.str.2 = private unnamed_addr constant [12 x i8] c"tablecmds.c\00", align 1
@.str.76 = private unnamed_addr constant [21 x i8] c"\22%s\22 is not an index\00", align 1
@__func__.RangeVarCallbackForAttachIndex = private unnamed_addr constant [31 x i8] c"RangeVarCallbackForAttachIndex\00", align 1

; Function Attrs: inlinehint nounwind uwtable
define internal ptr @GETSTRUCT(ptr noundef %0) #6 {
  %2 = alloca ptr, align 8
  store ptr %0, ptr %2, align 8
  %3 = load ptr, ptr %2, align 8
  %4 = getelementptr inbounds nuw %struct.HeapTupleData, ptr %3, i32 0, i32 3
  %5 = load ptr, ptr %4, align 8
  %6 = load ptr, ptr %2, align 8
  %7 = getelementptr inbounds nuw %struct.HeapTupleData, ptr %6, i32 0, i32 3
  %8 = load ptr, ptr %7, align 8
  %9 = getelementptr inbounds nuw %struct.HeapTupleHeaderData, ptr %8, i32 0, i32 4
  %10 = load i8, ptr %9, align 2
  %11 = zext i8 %10 to i32
  %12 = sext i32 %11 to i64
  %13 = getelementptr inbounds i8, ptr %5, i64 %12
  ret ptr %13
}

; Function Attrs: inlinehint nounwind uwtable
define internal i64 @ObjectIdGetDatum(i32 noundef %0) #6 {
  %2 = alloca i32, align 4
  store i32 %0, ptr %2, align 4
  %3 = load i32, ptr %2, align 4
  %4 = zext i32 %3 to i64
  ret i64 %4
}

; Function Attrs: nounwind uwtable
define internal void @RangeVarCallbackForAttachIndex(ptr noundef %0, i32 noundef %1, i32 noundef %2, ptr noundef %3) #0 {
  %5 = alloca ptr, align 8
  %6 = alloca i32, align 4
  %7 = alloca i32, align 4
  %8 = alloca ptr, align 8
  %9 = alloca ptr, align 8
  %10 = alloca ptr, align 8
  %11 = alloca ptr, align 8
  %12 = alloca i32, align 4
  store ptr %0, ptr %5, align 8
  store i32 %1, ptr %6, align 4
  store i32 %2, ptr %7, align 4
  store ptr %3, ptr %8, align 8
  call void @llvm.lifetime.start.p0(i64 8, ptr %9) #12
  call void @llvm.lifetime.start.p0(i64 8, ptr %10) #12
  call void @llvm.lifetime.start.p0(i64 8, ptr %11) #12
  %13 = load ptr, ptr %8, align 8
  store ptr %13, ptr %9, align 8
  %14 = load ptr, ptr %9, align 8
  %15 = getelementptr inbounds nuw %struct.AttachIndexCallbackState, ptr %14, i32 0, i32 2
  %16 = load i8, ptr %15, align 4, !range !6, !noundef !7
  %17 = trunc i8 %16 to i1
  br i1 %17, label %24, label %18

18:                                               ; preds = %4
  %19 = load ptr, ptr %9, align 8
  %20 = getelementptr inbounds nuw %struct.AttachIndexCallbackState, ptr %19, i32 0, i32 1
  %21 = load i32, ptr %20, align 4
  call void @LockRelationOid(i32 noundef %21, i32 noundef 1)
  %22 = load ptr, ptr %9, align 8
  %23 = getelementptr inbounds nuw %struct.AttachIndexCallbackState, ptr %22, i32 0, i32 2
  store i8 1, ptr %23, align 4
  br label %24

24:                                               ; preds = %18, %4
  %25 = load i32, ptr %6, align 4
  %26 = load i32, ptr %7, align 4
  %27 = icmp ne i32 %25, %26
  br i1 %27, label %28, label %39

28:                                               ; preds = %24
  %29 = load ptr, ptr %9, align 8
  %30 = getelementptr inbounds nuw %struct.AttachIndexCallbackState, ptr %29, i32 0, i32 0
  %31 = load i32, ptr %30, align 4
  %32 = icmp ne i32 %31, 0
  br i1 %32, label %33, label %39

33:                                               ; preds = %28
  %34 = load ptr, ptr %9, align 8
  %35 = getelementptr inbounds nuw %struct.AttachIndexCallbackState, ptr %34, i32 0, i32 0
  %36 = load i32, ptr %35, align 4
  call void @UnlockRelationOid(i32 noundef %36, i32 noundef 1)
  %37 = load ptr, ptr %9, align 8
  %38 = getelementptr inbounds nuw %struct.AttachIndexCallbackState, ptr %37, i32 0, i32 0
  store i32 0, ptr %38, align 4
  br label %39

39:                                               ; preds = %33, %28, %24
  %40 = load i32, ptr %6, align 4
  %41 = icmp ne i32 %40, 0
  br i1 %41, label %43, label %42

42:                                               ; preds = %39
  store i32 1, ptr %12, align 4
  br label %88

43:                                               ; preds = %39
  %44 = load i32, ptr %6, align 4
  %45 = call i64 @ObjectIdGetDatum(i32 noundef %44)
  %46 = call ptr @SearchSysCache1(i32 noundef 57, i64 noundef %45)
  store ptr %46, ptr %11, align 8
  %47 = load ptr, ptr %11, align 8
  %48 = icmp ne ptr %47, null
  br i1 %48, label %50, label %49

49:                                               ; preds = %43
  store i32 1, ptr %12, align 4
  br label %88

50:                                               ; preds = %43
  %51 = load ptr, ptr %11, align 8
  %52 = call ptr @GETSTRUCT(ptr noundef %51)
  store ptr %52, ptr %10, align 8
  %53 = load ptr, ptr %10, align 8
  %54 = getelementptr inbounds nuw %struct.FormData_pg_class, ptr %53, i32 0, i32 16
  %55 = load i8, ptr %54, align 1
  %56 = sext i8 %55 to i32
  %57 = icmp ne i32 %56, 73
  br i1 %57, label %58, label %79

58:                                               ; preds = %50
  %59 = load ptr, ptr %10, align 8
  %60 = getelementptr inbounds nuw %struct.FormData_pg_class, ptr %59, i32 0, i32 16
  %61 = load i8, ptr %60, align 1
  %62 = sext i8 %61 to i32
  %63 = icmp ne i32 %62, 105
  br i1 %63, label %64, label %79

64:                                               ; preds = %58
  br label %65

65:                                               ; preds = %64
  br i1 true, label %66, label %68

66:                                               ; preds = %65
  %67 = call zeroext i1 @errstart_cold(i32 noundef 21, ptr noundef null) #13
  br i1 %67, label %70, label %76

68:                                               ; preds = %65
  %69 = call zeroext i1 @errstart(i32 noundef 21, ptr noundef null)
  br i1 %69, label %70, label %76

70:                                               ; preds = %68, %66
  %71 = call i32 @errcode(i32 noundef 117833860)
  %72 = load ptr, ptr %5, align 8
  %73 = getelementptr inbounds nuw %struct.RangeVar, ptr %72, i32 0, i32 3
  %74 = load ptr, ptr %73, align 8
  %75 = call i32 (ptr, ...) @errmsg(ptr noundef @.str.76, ptr noundef %74)
  call void @errfinish(ptr noundef @.str.2, i32 noundef 20650, ptr noundef @__func__.RangeVarCallbackForAttachIndex)
  br label %76

76:                                               ; preds = %70, %68, %66
  unreachable

77:                                               ; No predecessors!
  br label %78

78:                                               ; preds = %77
  br label %79

79:                                               ; preds = %78, %58, %50
  %80 = load ptr, ptr %11, align 8
  call void @ReleaseSysCache(ptr noundef %80)
  %81 = load i32, ptr %6, align 4
  %82 = call i32 @IndexGetRelation(i32 noundef %81, i1 noundef zeroext false)
  %83 = load ptr, ptr %9, align 8
  %84 = getelementptr inbounds nuw %struct.AttachIndexCallbackState, ptr %83, i32 0, i32 0
  store i32 %82, ptr %84, align 4
  %85 = load ptr, ptr %9, align 8
  %86 = getelementptr inbounds nuw %struct.AttachIndexCallbackState, ptr %85, i32 0, i32 0
  %87 = load i32, ptr %86, align 4
  call void @LockRelationOid(i32 noundef %87, i32 noundef 1)
  store i32 0, ptr %12, align 4
  br label %88

88:                                               ; preds = %79, %49, %42
  call void @llvm.lifetime.end.p0(i64 8, ptr %11) #12
  call void @llvm.lifetime.end.p0(i64 8, ptr %10) #12
  call void @llvm.lifetime.end.p0(i64 8, ptr %9) #12
  %89 = load i32, ptr %12, align 4
  switch i32 %89, label %91 [
    i32 0, label %90
    i32 1, label %90
  ]

90:                                               ; preds = %88, %88
  ret void

91:                                               ; preds = %88
  unreachable
}