; Function Attrs: nounwind uwtable
define internal void @RangeVarCallbackForAttachIndex(ptr noundef readonly captures(none) %0, i32 noundef %1, i32 noundef %2, ptr noundef captures(none) %3) #0 {
  %5 = getelementptr inbounds nuw i8, ptr %3, i64 8
  %6 = load i8, ptr %5, align 4, !range !6, !noundef !7
  %7 = trunc nuw i8 %6 to i1
  br i1 %7, label %11, label %8

8:                                                ; preds = %4
  %9 = getelementptr inbounds nuw i8, ptr %3, i64 4
  %10 = load i32, ptr %9, align 4
  tail call void @LockRelationOid(i32 noundef %10, i32 noundef 1) #15
  store i8 1, ptr %5, align 4
  br label %11

11:                                               ; preds = %8, %4
  %.not = icmp eq i32 %1, %2
  br i1 %.not, label %15, label %12

12:                                               ; preds = %11
  %13 = load i32, ptr %3, align 4
  %.not22 = icmp eq i32 %13, 0
  br i1 %.not22, label %15, label %14

14:                                               ; preds = %12
  tail call void @UnlockRelationOid(i32 noundef %13, i32 noundef 1) #15
  store i32 0, ptr %3, align 4
  br label %15

15:                                               ; preds = %14, %12, %11
  %.not23 = icmp eq i32 %1, 0
  br i1 %.not23, label %35, label %16

16:                                               ; preds = %15
  %17 = zext i32 %1 to i64
  %18 = tail call ptr @SearchSysCache1(i32 noundef 57, i64 noundef %17) #15
  %.not24 = icmp eq ptr %18, null
  br i1 %.not24, label %35, label %19

19:                                               ; preds = %16
  %20 = getelementptr i8, ptr %18, i64 16
  %.val = load ptr, ptr %20, align 8
  %21 = getelementptr inbounds nuw i8, ptr %.val, i64 22
  %22 = load i8, ptr %21, align 2
  %23 = zext i8 %22 to i64
  %24 = getelementptr inbounds nuw i8, ptr %.val, i64 %23
  %25 = getelementptr inbounds nuw i8, ptr %24, i64 115
  %26 = load i8, ptr %25, align 1
  switch i8 %26, label %27 [
    i8 73, label %33
    i8 105, label %33
  ]

27:                                               ; preds = %19
  %28 = tail call zeroext i1 @errstart_cold(i32 noundef 21, ptr noundef null) #16
  tail call void @llvm.assume(i1 %28)
  %29 = tail call i32 @errcode(i32 noundef 117833860) #15
  %30 = getelementptr inbounds nuw i8, ptr %0, i64 24
  %31 = load ptr, ptr %30, align 8
  %32 = tail call i32 (ptr, ...) @errmsg(ptr noundef nonnull @.str.76, ptr noundef %31) #15
  tail call void @errfinish(ptr noundef nonnull @.str.2, i32 noundef 20650, ptr noundef nonnull @__func__.RangeVarCallbackForAttachIndex) #15
  unreachable

33:                                               ; preds = %19, %19
  tail call void @ReleaseSysCache(ptr noundef nonnull %18) #15
  %34 = tail call i32 @IndexGetRelation(i32 noundef %1, i1 noundef zeroext false) #15
  store i32 %34, ptr %3, align 4
  tail call void @LockRelationOid(i32 noundef %34, i32 noundef 1) #15
  br label %35

35:                                               ; preds = %16, %15, %33
  ret void
}